; Function Attrs: mustprogress nounwind uwtable
define void @_ZN14VrmlTranslator6ParserD2Ev(ptr noundef nonnull align 8 dereferenceable(208) %0) unnamed_addr #3 align 2 personality ptr @__gxx_personality_v0 {
  %2 = getelementptr inbounds nuw i8, ptr %0, i64 32
  %3 = load ptr, ptr %2, align 8
  %4 = icmp eq ptr %3, null
  br i1 %4, label %6, label %5

5:                                                ; preds = %1
  tail call void @_ZN14VrmlTranslator6ErrorsD1Ev(ptr noundef nonnull align 8 dereferenceable(16) %3) #14
  tail call void @_ZdlPv(ptr noundef nonnull %3) #18
  br label %6

6:                                                ; preds = %5, %1
  %7 = getelementptr inbounds nuw i8, ptr %0, i64 8
  %8 = load ptr, ptr %7, align 8
  %9 = icmp eq ptr %8, null
  br i1 %9, label %11, label %10

10:                                               ; preds = %6
  tail call void @_ZN14VrmlTranslator5TokenD1Ev(ptr noundef nonnull align 8 dereferenceable(32) %8) #14
  tail call void @_ZdlPv(ptr noundef nonnull %8) #18
  br label %11

11:                                               ; preds = %10, %6
  %12 = getelementptr inbounds nuw i8, ptr %0, i64 160
  %13 = getelementptr inbounds nuw i8, ptr %0, i64 176
  %14 = load ptr, ptr %13, align 8
  invoke void @_ZNSt8_Rb_treeI7QStringS0_St9_IdentityIS0_ESt4lessIS0_ESaIS0_EE8_M_eraseEPSt13_Rb_tree_nodeIS0_E(ptr noundef nonnull align 8 dereferenceable(48) %12, ptr noundef %14)
          to label %_ZNSt3setI7QStringSt4lessIS0_ESaIS0_EED2Ev.exit unwind label %15

15:                                               ; preds = %11
  %16 = landingpad { ptr, i32 }
          catch ptr null
  %17 = extractvalue { ptr, i32 } %16, 0
  tail call void @__clang_call_terminate(ptr %17) #15
  unreachable

_ZNSt3setI7QStringSt4lessIS0_ESaIS0_EED2Ev.exit:  ; preds = %11
  %18 = getelementptr inbounds nuw i8, ptr %0, i64 112
  %19 = getelementptr inbounds nuw i8, ptr %0, i64 128
  %20 = load ptr, ptr %19, align 8
  invoke void @_ZNSt8_Rb_treeI7QStringS0_St9_IdentityIS0_ESt4lessIS0_ESaIS0_EE8_M_eraseEPSt13_Rb_tree_nodeIS0_E(ptr noundef nonnull align 8 dereferenceable(48) %18, ptr noundef %20)
          to label %_ZNSt3setI7QStringSt4lessIS0_ESaIS0_EED2Ev.exit2 unwind label %21

21:                                               ; preds = %_ZNSt3setI7QStringSt4lessIS0_ESaIS0_EED2Ev.exit
  %22 = landingpad { ptr, i32 }
          catch ptr null
  %23 = extractvalue { ptr, i32 } %22, 0
  tail call void @__clang_call_terminate(ptr %23) #15
  unreachable

_ZNSt3setI7QStringSt4lessIS0_ESaIS0_EED2Ev.exit2: ; preds = %_ZNSt3setI7QStringSt4lessIS0_ESaIS0_EED2Ev.exit
  %24 = getelementptr inbounds nuw i8, ptr %0, i64 64
  %25 = getelementptr inbounds nuw i8, ptr %0, i64 80
  %26 = load ptr, ptr %25, align 8
  invoke void @_ZNSt8_Rb_treeI7QStringSt4pairIKS0_S0_ESt10_Select1stIS3_ESt4lessIS0_ESaIS3_EE8_M_eraseEPSt13_Rb_tree_nodeIS3_E(ptr noundef nonnull align 8 dereferenceable(48) %24, ptr noundef %26)
          to label %_ZNSt3mapI7QStringS0_St4lessIS0_ESaISt4pairIKS0_S0_EEED2Ev.exit unwind label %27

27:                                               ; preds = %_ZNSt3setI7QStringSt4lessIS0_ESaIS0_EED2Ev.exit2
  %28 = landingpad { ptr, i32 }
          catch ptr null
  %29 = extractvalue { ptr, i32 } %28, 0
  tail call void @__clang_call_terminate(ptr %29) #15
  unreachable

_ZNSt3mapI7QStringS0_St4lessIS0_ESaISt4pairIKS0_S0_EEED2Ev.exit: ; preds = %_ZNSt3setI7QStringSt4lessIS0_ESaIS0_EED2Ev.exit2
  ret void
}